target datalayout = "e-m:e-p270:32:32-p271:32:32-p272:64:64-i64:64-i128:128-f80:128-n8:16:32:64-S128"
target triple = "x86_64-pc-linux-gnu"

%struct.DES_cblock_st = type { [8 x i8] }

; Function Attrs: nounwind uwtable
define hidden void @DES_set_odd_parity(ptr noundef %0) #0 {
  %2 = alloca ptr, align 8
  %3 = alloca i32, align 4
  store ptr %0, ptr %2, align 8, !tbaa !6
  call void @llvm.lifetime.start.p0(i64 4, ptr %3) #2
  store i32 0, ptr %3, align 4, !tbaa !16
  br label %4

4:                                                ; preds = %23, %1
  %5 = load i32, ptr %3, align 4, !tbaa !16
  %6 = zext i32 %5 to i64
  %7 = icmp ult i64 %6, 8
  br i1 %7, label %8, label %26

8:                                                ; preds = %4
  %9 = load ptr, ptr %2, align 8, !tbaa !6
  %10 = getelementptr inbounds nuw %struct.DES_cblock_st, ptr %9, i32 0, i32 0
  %11 = load i32, ptr %3, align 4, !tbaa !16
  %12 = zext i32 %11 to i64
  %13 = getelementptr inbounds nuw [8 x i8], ptr %10, i64 0, i64 %12
  %14 = load i8, ptr %13, align 1, !tbaa !15
  %15 = zext i8 %14 to i64
  %16 = getelementptr inbounds nuw [256 x i8], ptr @kOddParity, i64 0, i64 %15
  %17 = load i8, ptr %16, align 1, !tbaa !15
  %18 = load ptr, ptr %2, align 8, !tbaa !6
  %19 = getelementptr inbounds nuw %struct.DES_cblock_st, ptr %18, i32 0, i32 0
  %20 = load i32, ptr %3, align 4, !tbaa !16
  %21 = zext i32 %20 to i64
  %22 = getelementptr inbounds nuw [8 x i8], ptr %19, i64 0, i64 %21
  store i8 %17, ptr %22, align 1, !tbaa !15
  br label %23

23:                                               ; preds = %8
  %24 = load i32, ptr %3, align 4, !tbaa !16
  %25 = add i32 %24, 1
  store i32 %25, ptr %3, align 4, !tbaa !16
  br label %4, !llvm.loop !20

26:                                               ; preds = %4
  call void @llvm.lifetime.end.p0(i64 4, ptr %3) #2
  ret void
}