; Function Attrs: nofree norecurse nosync nounwind memory(argmem: readwrite) uwtable
define hidden void @DES_set_odd_parity(ptr noundef captures(none) %0) local_unnamed_addr #0 {
  br label %2

2:                                                ; preds = %1, %2
  %indvars.iv = phi i64 [ 0, %1 ], [ %indvars.iv.next, %2 ]
  %3 = getelementptr inbounds nuw [8 x i8], ptr %0, i64 0, i64 %indvars.iv
  %4 = load i8, ptr %3, align 1, !tbaa !6
  %5 = zext i8 %4 to i64
  %6 = getelementptr inbounds nuw [256 x i8], ptr @kOddParity, i64 0, i64 %5
  %7 = load i8, ptr %6, align 1, !tbaa !6
  store i8 %7, ptr %3, align 1, !tbaa !6
  %indvars.iv.next = add nuw nsw i64 %indvars.iv, 1
  %exitcond.not = icmp eq i64 %indvars.iv.next, 8
  br i1 %exitcond.not, label %8, label %2, !llvm.loop !13

8:                                                ; preds = %2
  ret void
}